target datalayout = "e-m:e-p270:32:32-p271:32:32-p272:64:64-i64:64-i128:128-f80:128-n8:16:32:64-S128"
target triple = "x86_64-pc-linux-gnu"

%struct.Map_MatchStruct_t_ = type { ptr, i32, i32, ptr, %struct.Map_TimeStruct_t_, float }
%struct.Map_TimeStruct_t_ = type { float, float, float }
%struct.Map_ManStruct_t_ = type { ptr, i32, ptr, i32, ptr, i32, i32, ptr, ptr, ptr, ptr, ptr, ptr, ptr, ptr, i32, i32, i32, i32, float, float, float, float, i32, i32, float, i32, i32, i32, i32, ptr, [6 x [2 x i32]], [10 x [32 x i32]], [32 x i32], [32 x i32], ptr, ptr, ptr, ptr, ptr, ptr, i32, i32, i32, i32, i32, i32, i64, i64, i64, i64, i64, i64, i64, i64, i64, i64, i64 }
%struct.Map_CutStruct_t_ = type { ptr, ptr, ptr, [6 x ptr], i32, i8, i8, i8, i8, [2 x %struct.Map_MatchStruct_t_] }
%struct.Map_NodeStruct_t_ = type { ptr, ptr, i32, i32, i32, i32, [3 x i32], [3 x float], float, ptr, ptr, ptr, ptr, [2 x %struct.Map_TimeStruct_t_], [2 x %struct.Map_TimeStruct_t_], [2 x ptr], ptr, ptr, ptr }
%struct.Map_SuperLibStruct_t_ = type { ptr, ptr, i32, i32, i32, i32, i32, ptr, ptr, ptr, [6 x [2 x i32]], [2 x i32], ptr, %struct.Map_TimeStruct_t_, float, float, ptr, ptr, ptr, ptr }

; Function Attrs: nounwind uwtable
define void @Map_NodeTransferArrivalTimes(ptr noundef %0, ptr noundef %1) #0 {
  %3 = alloca ptr, align 8
  %4 = alloca ptr, align 8
  store ptr %0, ptr %3, align 8, !tbaa !17
  store ptr %1, ptr %4, align 8, !tbaa !39
  %5 = load ptr, ptr %4, align 8, !tbaa !39
  %6 = getelementptr inbounds nuw %struct.Map_NodeStruct_t_, ptr %5, i32 0, i32 15
  %7 = getelementptr inbounds [2 x ptr], ptr %6, i64 0, i64 0
  %8 = load ptr, ptr %7, align 8, !tbaa !40
  %9 = icmp ne ptr %8, null
  br i1 %9, label %10, label %37

10:                                               ; preds = %2
  %11 = load ptr, ptr %4, align 8, !tbaa !39
  %12 = getelementptr inbounds nuw %struct.Map_NodeStruct_t_, ptr %11, i32 0, i32 15
  %13 = getelementptr inbounds [2 x ptr], ptr %12, i64 0, i64 1
  %14 = load ptr, ptr %13, align 8, !tbaa !40
  %15 = icmp ne ptr %14, null
  br i1 %15, label %16, label %37

16:                                               ; preds = %10
  %17 = load ptr, ptr %4, align 8, !tbaa !39
  %18 = getelementptr inbounds nuw %struct.Map_NodeStruct_t_, ptr %17, i32 0, i32 13
  %19 = getelementptr inbounds [2 x %struct.Map_TimeStruct_t_], ptr %18, i64 0, i64 0
  %20 = load ptr, ptr %4, align 8, !tbaa !39
  %21 = getelementptr inbounds nuw %struct.Map_NodeStruct_t_, ptr %20, i32 0, i32 15
  %22 = getelementptr inbounds [2 x ptr], ptr %21, i64 0, i64 0
  %23 = load ptr, ptr %22, align 8, !tbaa !40
  %24 = getelementptr inbounds nuw %struct.Map_CutStruct_t_, ptr %23, i32 0, i32 9
  %25 = getelementptr inbounds [2 x %struct.Map_MatchStruct_t_], ptr %24, i64 0, i64 0
  %26 = getelementptr inbounds nuw %struct.Map_MatchStruct_t_, ptr %25, i32 0, i32 4
  call void @llvm.memcpy.p0.p0.i64(ptr align 8 %19, ptr align 8 %26, i64 12, i1 false), !tbaa.struct !70
  %27 = load ptr, ptr %4, align 8, !tbaa !39
  %28 = getelementptr inbounds nuw %struct.Map_NodeStruct_t_, ptr %27, i32 0, i32 13
  %29 = getelementptr inbounds [2 x %struct.Map_TimeStruct_t_], ptr %28, i64 0, i64 1
  %30 = load ptr, ptr %4, align 8, !tbaa !39
  %31 = getelementptr inbounds nuw %struct.Map_NodeStruct_t_, ptr %30, i32 0, i32 15
  %32 = getelementptr inbounds [2 x ptr], ptr %31, i64 0, i64 1
  %33 = load ptr, ptr %32, align 8, !tbaa !40
  %34 = getelementptr inbounds nuw %struct.Map_CutStruct_t_, ptr %33, i32 0, i32 9
  %35 = getelementptr inbounds [2 x %struct.Map_MatchStruct_t_], ptr %34, i64 0, i64 1
  %36 = getelementptr inbounds nuw %struct.Map_MatchStruct_t_, ptr %35, i32 0, i32 4
  call void @llvm.memcpy.p0.p0.i64(ptr align 4 %29, ptr align 8 %36, i64 12, i1 false), !tbaa.struct !70
  br label %196

37:                                               ; preds = %10, %2
  %38 = load ptr, ptr %4, align 8, !tbaa !39
  %39 = getelementptr inbounds nuw %struct.Map_NodeStruct_t_, ptr %38, i32 0, i32 15
  %40 = getelementptr inbounds [2 x ptr], ptr %39, i64 0, i64 0
  %41 = load ptr, ptr %40, align 8, !tbaa !40
  %42 = icmp ne ptr %41, null
  br i1 %42, label %43, label %115

43:                                               ; preds = %37
  %44 = load ptr, ptr %4, align 8, !tbaa !39
  %45 = getelementptr inbounds nuw %struct.Map_NodeStruct_t_, ptr %44, i32 0, i32 13
  %46 = getelementptr inbounds [2 x %struct.Map_TimeStruct_t_], ptr %45, i64 0, i64 0
  %47 = load ptr, ptr %4, align 8, !tbaa !39
  %48 = getelementptr inbounds nuw %struct.Map_NodeStruct_t_, ptr %47, i32 0, i32 15
  %49 = getelementptr inbounds [2 x ptr], ptr %48, i64 0, i64 0
  %50 = load ptr, ptr %49, align 8, !tbaa !40
  %51 = getelementptr inbounds nuw %struct.Map_CutStruct_t_, ptr %50, i32 0, i32 9
  %52 = getelementptr inbounds [2 x %struct.Map_MatchStruct_t_], ptr %51, i64 0, i64 0
  %53 = getelementptr inbounds nuw %struct.Map_MatchStruct_t_, ptr %52, i32 0, i32 4
  call void @llvm.memcpy.p0.p0.i64(ptr align 8 %46, ptr align 8 %53, i64 12, i1 false), !tbaa.struct !70
  %54 = load ptr, ptr %4, align 8, !tbaa !39
  %55 = getelementptr inbounds nuw %struct.Map_NodeStruct_t_, ptr %54, i32 0, i32 13
  %56 = getelementptr inbounds [2 x %struct.Map_TimeStruct_t_], ptr %55, i64 0, i64 0
  %57 = getelementptr inbounds nuw %struct.Map_TimeStruct_t_, ptr %56, i32 0, i32 1
  %58 = load float, ptr %57, align 4, !tbaa !67
  %59 = load ptr, ptr %3, align 8, !tbaa !17
  %60 = getelementptr inbounds nuw %struct.Map_ManStruct_t_, ptr %59, i32 0, i32 30
  %61 = load ptr, ptr %60, align 8, !tbaa !73
  %62 = getelementptr inbounds nuw %struct.Map_SuperLibStruct_t_, ptr %61, i32 0, i32 13
  %63 = getelementptr inbounds nuw %struct.Map_TimeStruct_t_, ptr %62, i32 0, i32 0
  %64 = load float, ptr %63, align 8, !tbaa !74
  %65 = fadd float %58, %64
  %66 = load ptr, ptr %4, align 8, !tbaa !39
  %67 = getelementptr inbounds nuw %struct.Map_NodeStruct_t_, ptr %66, i32 0, i32 13
  %68 = getelementptr inbounds [2 x %struct.Map_TimeStruct_t_], ptr %67, i64 0, i64 1
  %69 = getelementptr inbounds nuw %struct.Map_TimeStruct_t_, ptr %68, i32 0, i32 0
  store float %65, ptr %69, align 4, !tbaa !68
  %70 = load ptr, ptr %4, align 8, !tbaa !39
  %71 = getelementptr inbounds nuw %struct.Map_NodeStruct_t_, ptr %70, i32 0, i32 13
  %72 = getelementptr inbounds [2 x %struct.Map_TimeStruct_t_], ptr %71, i64 0, i64 0
  %73 = getelementptr inbounds nuw %struct.Map_TimeStruct_t_, ptr %72, i32 0, i32 0
  %74 = load float, ptr %73, align 8, !tbaa !68
  %75 = load ptr, ptr %3, align 8, !tbaa !17
  %76 = getelementptr inbounds nuw %struct.Map_ManStruct_t_, ptr %75, i32 0, i32 30
  %77 = load ptr, ptr %76, align 8, !tbaa !73
  %78 = getelementptr inbounds nuw %struct.Map_SuperLibStruct_t_, ptr %77, i32 0, i32 13
  %79 = getelementptr inbounds nuw %struct.Map_TimeStruct_t_, ptr %78, i32 0, i32 1
  %80 = load float, ptr %79, align 4, !tbaa !80
  %81 = fadd float %74, %80
  %82 = load ptr, ptr %4, align 8, !tbaa !39
  %83 = getelementptr inbounds nuw %struct.Map_NodeStruct_t_, ptr %82, i32 0, i32 13
  %84 = getelementptr inbounds [2 x %struct.Map_TimeStruct_t_], ptr %83, i64 0, i64 1
  %85 = getelementptr inbounds nuw %struct.Map_TimeStruct_t_, ptr %84, i32 0, i32 1
  store float %81, ptr %85, align 4, !tbaa !67
  %86 = load ptr, ptr %4, align 8, !tbaa !39
  %87 = getelementptr inbounds nuw %struct.Map_NodeStruct_t_, ptr %86, i32 0, i32 13
  %88 = getelementptr inbounds [2 x %struct.Map_TimeStruct_t_], ptr %87, i64 0, i64 1
  %89 = getelementptr inbounds nuw %struct.Map_TimeStruct_t_, ptr %88, i32 0, i32 0
  %90 = load float, ptr %89, align 4, !tbaa !68
  %91 = load ptr, ptr %4, align 8, !tbaa !39
  %92 = getelementptr inbounds nuw %struct.Map_NodeStruct_t_, ptr %91, i32 0, i32 13
  %93 = getelementptr inbounds [2 x %struct.Map_TimeStruct_t_], ptr %92, i64 0, i64 1
  %94 = getelementptr inbounds nuw %struct.Map_TimeStruct_t_, ptr %93, i32 0, i32 1
  %95 = load float, ptr %94, align 4, !tbaa !67
  %96 = fcmp ogt float %90, %95
  br i1 %96, label %97, label %103

97:                                               ; preds = %43
  %98 = load ptr, ptr %4, align 8, !tbaa !39
  %99 = getelementptr inbounds nuw %struct.Map_NodeStruct_t_, ptr %98, i32 0, i32 13
  %100 = getelementptr inbounds [2 x %struct.Map_TimeStruct_t_], ptr %99, i64 0, i64 1
  %101 = getelementptr inbounds nuw %struct.Map_TimeStruct_t_, ptr %100, i32 0, i32 0
  %102 = load float, ptr %101, align 4, !tbaa !68
  br label %109

103:                                              ; preds = %43
  %104 = load ptr, ptr %4, align 8, !tbaa !39
  %105 = getelementptr inbounds nuw %struct.Map_NodeStruct_t_, ptr %104, i32 0, i32 13
  %106 = getelementptr inbounds [2 x %struct.Map_TimeStruct_t_], ptr %105, i64 0, i64 1
  %107 = getelementptr inbounds nuw %struct.Map_TimeStruct_t_, ptr %106, i32 0, i32 1
  %108 = load float, ptr %107, align 4, !tbaa !67
  br label %109

109:                                              ; preds = %103, %97
  %110 = phi float [ %102, %97 ], [ %108, %103 ]
  %111 = load ptr, ptr %4, align 8, !tbaa !39
  %112 = getelementptr inbounds nuw %struct.Map_NodeStruct_t_, ptr %111, i32 0, i32 13
  %113 = getelementptr inbounds [2 x %struct.Map_TimeStruct_t_], ptr %112, i64 0, i64 1
  %114 = getelementptr inbounds nuw %struct.Map_TimeStruct_t_, ptr %113, i32 0, i32 2
  store float %110, ptr %114, align 4, !tbaa !56
  br label %195

115:                                              ; preds = %37
  %116 = load ptr, ptr %4, align 8, !tbaa !39
  %117 = getelementptr inbounds nuw %struct.Map_NodeStruct_t_, ptr %116, i32 0, i32 15
  %118 = getelementptr inbounds [2 x ptr], ptr %117, i64 0, i64 1
  %119 = load ptr, ptr %118, align 8, !tbaa !40
  %120 = icmp ne ptr %119, null
  br i1 %120, label %121, label %193

121:                                              ; preds = %115
  %122 = load ptr, ptr %4, align 8, !tbaa !39
  %123 = getelementptr inbounds nuw %struct.Map_NodeStruct_t_, ptr %122, i32 0, i32 13
  %124 = getelementptr inbounds [2 x %struct.Map_TimeStruct_t_], ptr %123, i64 0, i64 1
  %125 = load ptr, ptr %4, align 8, !tbaa !39
  %126 = getelementptr inbounds nuw %struct.Map_NodeStruct_t_, ptr %125, i32 0, i32 15
  %127 = getelementptr inbounds [2 x ptr], ptr %126, i64 0, i64 1
  %128 = load ptr, ptr %127, align 8, !tbaa !40
  %129 = getelementptr inbounds nuw %struct.Map_CutStruct_t_, ptr %128, i32 0, i32 9
  %130 = getelementptr inbounds [2 x %struct.Map_MatchStruct_t_], ptr %129, i64 0, i64 1
  %131 = getelementptr inbounds nuw %struct.Map_MatchStruct_t_, ptr %130, i32 0, i32 4
  call void @llvm.memcpy.p0.p0.i64(ptr align 4 %124, ptr align 8 %131, i64 12, i1 false), !tbaa.struct !70
  %132 = load ptr, ptr %4, align 8, !tbaa !39
  %133 = getelementptr inbounds nuw %struct.Map_NodeStruct_t_, ptr %132, i32 0, i32 13
  %134 = getelementptr inbounds [2 x %struct.Map_TimeStruct_t_], ptr %133, i64 0, i64 1
  %135 = getelementptr inbounds nuw %struct.Map_TimeStruct_t_, ptr %134, i32 0, i32 1
  %136 = load float, ptr %135, align 4, !tbaa !67
  %137 = load ptr, ptr %3, align 8, !tbaa !17
  %138 = getelementptr inbounds nuw %struct.Map_ManStruct_t_, ptr %137, i32 0, i32 30
  %139 = load ptr, ptr %138, align 8, !tbaa !73
  %140 = getelementptr inbounds nuw %struct.Map_SuperLibStruct_t_, ptr %139, i32 0, i32 13
  %141 = getelementptr inbounds nuw %struct.Map_TimeStruct_t_, ptr %140, i32 0, i32 0
  %142 = load float, ptr %141, align 8, !tbaa !74
  %143 = fadd float %136, %142
  %144 = load ptr, ptr %4, align 8, !tbaa !39
  %145 = getelementptr inbounds nuw %struct.Map_NodeStruct_t_, ptr %144, i32 0, i32 13
  %146 = getelementptr inbounds [2 x %struct.Map_TimeStruct_t_], ptr %145, i64 0, i64 0
  %147 = getelementptr inbounds nuw %struct.Map_TimeStruct_t_, ptr %146, i32 0, i32 0
  store float %143, ptr %147, align 8, !tbaa !68
  %148 = load ptr, ptr %4, align 8, !tbaa !39
  %149 = getelementptr inbounds nuw %struct.Map_NodeStruct_t_, ptr %148, i32 0, i32 13
  %150 = getelementptr inbounds [2 x %struct.Map_TimeStruct_t_], ptr %149, i64 0, i64 1
  %151 = getelementptr inbounds nuw %struct.Map_TimeStruct_t_, ptr %150, i32 0, i32 0
  %152 = load float, ptr %151, align 4, !tbaa !68
  %153 = load ptr, ptr %3, align 8, !tbaa !17
  %154 = getelementptr inbounds nuw %struct.Map_ManStruct_t_, ptr %153, i32 0, i32 30
  %155 = load ptr, ptr %154, align 8, !tbaa !73
  %156 = getelementptr inbounds nuw %struct.Map_SuperLibStruct_t_, ptr %155, i32 0, i32 13
  %157 = getelementptr inbounds nuw %struct.Map_TimeStruct_t_, ptr %156, i32 0, i32 1
  %158 = load float, ptr %157, align 4, !tbaa !80
  %159 = fadd float %152, %158
  %160 = load ptr, ptr %4, align 8, !tbaa !39
  %161 = getelementptr inbounds nuw %struct.Map_NodeStruct_t_, ptr %160, i32 0, i32 13
  %162 = getelementptr inbounds [2 x %struct.Map_TimeStruct_t_], ptr %161, i64 0, i64 0
  %163 = getelementptr inbounds nuw %struct.Map_TimeStruct_t_, ptr %162, i32 0, i32 1
  store float %159, ptr %163, align 4, !tbaa !67
  %164 = load ptr, ptr %4, align 8, !tbaa !39
  %165 = getelementptr inbounds nuw %struct.Map_NodeStruct_t_, ptr %164, i32 0, i32 13
  %166 = getelementptr inbounds [2 x %struct.Map_TimeStruct_t_], ptr %165, i64 0, i64 0
  %167 = getelementptr inbounds nuw %struct.Map_TimeStruct_t_, ptr %166, i32 0, i32 0
  %168 = load float, ptr %167, align 8, !tbaa !68
  %169 = load ptr, ptr %4, align 8, !tbaa !39
  %170 = getelementptr inbounds nuw %struct.Map_NodeStruct_t_, ptr %169, i32 0, i32 13
  %171 = getelementptr inbounds [2 x %struct.Map_TimeStruct_t_], ptr %170, i64 0, i64 0
  %172 = getelementptr inbounds nuw %struct.Map_TimeStruct_t_, ptr %171, i32 0, i32 1
  %173 = load float, ptr %172, align 4, !tbaa !67
  %174 = fcmp ogt float %168, %173
  br i1 %174, label %175, label %181

175:                                              ; preds = %121
  %176 = load ptr, ptr %4, align 8, !tbaa !39
  %177 = getelementptr inbounds nuw %struct.Map_NodeStruct_t_, ptr %176, i32 0, i32 13
  %178 = getelementptr inbounds [2 x %struct.Map_TimeStruct_t_], ptr %177, i64 0, i64 0
  %179 = getelementptr inbounds nuw %struct.Map_TimeStruct_t_, ptr %178, i32 0, i32 0
  %180 = load float, ptr %179, align 8, !tbaa !68
  br label %187

181:                                              ; preds = %121
  %182 = load ptr, ptr %4, align 8, !tbaa !39
  %183 = getelementptr inbounds nuw %struct.Map_NodeStruct_t_, ptr %182, i32 0, i32 13
  %184 = getelementptr inbounds [2 x %struct.Map_TimeStruct_t_], ptr %183, i64 0, i64 0
  %185 = getelementptr inbounds nuw %struct.Map_TimeStruct_t_, ptr %184, i32 0, i32 1
  %186 = load float, ptr %185, align 4, !tbaa !67
  br label %187

187:                                              ; preds = %181, %175
  %188 = phi float [ %180, %175 ], [ %186, %181 ]
  %189 = load ptr, ptr %4, align 8, !tbaa !39
  %190 = getelementptr inbounds nuw %struct.Map_NodeStruct_t_, ptr %189, i32 0, i32 13
  %191 = getelementptr inbounds [2 x %struct.Map_TimeStruct_t_], ptr %190, i64 0, i64 0
  %192 = getelementptr inbounds nuw %struct.Map_TimeStruct_t_, ptr %191, i32 0, i32 2
  store float %188, ptr %192, align 8, !tbaa !56
  br label %194

193:                                              ; preds = %115
  br label %194

194:                                              ; preds = %193, %187
  br label %195

195:                                              ; preds = %194, %109
  br label %196

196:                                              ; preds = %195, %16
  ret void
}