; Function Attrs: mustprogress nofree norecurse nosync nounwind willreturn memory(readwrite, inaccessiblemem: none) uwtable
define void @Map_NodeTransferArrivalTimes(ptr noundef readonly captures(none) %0, ptr noundef captures(none) %1) local_unnamed_addr #8 {
  %3 = getelementptr inbounds nuw i8, ptr %1, i64 144
  %4 = load ptr, ptr %3, align 8, !tbaa !47
  %.not = icmp eq ptr %4, null
  %5 = getelementptr inbounds nuw i8, ptr %1, i64 152
  %6 = load ptr, ptr %5, align 8, !tbaa !47
  %.not42 = icmp eq ptr %6, null
  br i1 %.not, label %29, label %7

7:                                                ; preds = %2
  %8 = getelementptr inbounds nuw i8, ptr %1, i64 96
  %9 = getelementptr inbounds nuw i8, ptr %4, i64 104
  tail call void @llvm.memcpy.p0.p0.i64(ptr noundef nonnull align 8 dereferenceable(12) %8, ptr noundef nonnull align 8 dereferenceable(12) %9, i64 12, i1 false)
  br i1 %.not42, label %13, label %10

10:                                               ; preds = %7
  %11 = getelementptr inbounds nuw i8, ptr %1, i64 108
  %12 = getelementptr inbounds nuw i8, ptr %6, i64 144
  tail call void @llvm.memcpy.p0.p0.i64(ptr noundef nonnull align 4 dereferenceable(12) %11, ptr noundef nonnull align 8 dereferenceable(12) %12, i64 12, i1 false), !tbaa.struct !68
  br label %48

13:                                               ; preds = %7
  %14 = getelementptr inbounds nuw i8, ptr %1, i64 100
  %15 = load float, ptr %14, align 4, !tbaa !65
  %16 = getelementptr inbounds nuw i8, ptr %0, i64 176
  %17 = load ptr, ptr %16, align 8, !tbaa !71
  %18 = getelementptr inbounds nuw i8, ptr %17, i64 128
  %19 = load float, ptr %18, align 8, !tbaa !72
  %20 = fadd float %15, %19
  %21 = getelementptr inbounds nuw i8, ptr %1, i64 108
  store float %20, ptr %21, align 4, !tbaa !66
  %22 = load float, ptr %8, align 8, !tbaa !66
  %23 = getelementptr inbounds nuw i8, ptr %17, i64 132
  %24 = load float, ptr %23, align 4, !tbaa !78
  %25 = fadd float %22, %24
  %26 = getelementptr inbounds nuw i8, ptr %1, i64 112
  store float %25, ptr %26, align 4, !tbaa !65
  %27 = fcmp ogt float %20, %25
  %. = select i1 %27, float %20, float %25
  %28 = getelementptr inbounds nuw i8, ptr %1, i64 116
  store float %., ptr %28, align 4, !tbaa !54
  br label %48

29:                                               ; preds = %2
  br i1 %.not42, label %48, label %30

30:                                               ; preds = %29
  %31 = getelementptr inbounds nuw i8, ptr %1, i64 96
  %32 = getelementptr inbounds nuw i8, ptr %1, i64 108
  %33 = getelementptr inbounds nuw i8, ptr %6, i64 144
  tail call void @llvm.memcpy.p0.p0.i64(ptr noundef nonnull align 4 dereferenceable(12) %32, ptr noundef nonnull align 8 dereferenceable(12) %33, i64 12, i1 false), !tbaa.struct !68
  %34 = getelementptr inbounds nuw i8, ptr %1, i64 112
  %35 = load float, ptr %34, align 4, !tbaa !65
  %36 = getelementptr inbounds nuw i8, ptr %0, i64 176
  %37 = load ptr, ptr %36, align 8, !tbaa !71
  %38 = getelementptr inbounds nuw i8, ptr %37, i64 128
  %39 = load float, ptr %38, align 8, !tbaa !72
  %40 = fadd float %35, %39
  store float %40, ptr %31, align 8, !tbaa !66
  %41 = load float, ptr %32, align 4, !tbaa !66
  %42 = getelementptr inbounds nuw i8, ptr %37, i64 132
  %43 = load float, ptr %42, align 4, !tbaa !78
  %44 = fadd float %41, %43
  %45 = getelementptr inbounds nuw i8, ptr %1, i64 100
  store float %44, ptr %45, align 4, !tbaa !65
  %46 = fcmp ogt float %40, %44
  %.43 = select i1 %46, float %40, float %44
  %47 = getelementptr inbounds nuw i8, ptr %1, i64 104
  store float %.43, ptr %47, align 8, !tbaa !54
  br label %48

48:                                               ; preds = %13, %29, %30, %10
  ret void
}